target datalayout = "e-m:e-p270:32:32-p271:32:32-p272:64:64-i64:64-i128:128-f80:128-n8:16:32:64-S128"
target triple = "x86_64-pc-linux-gnu"

; Function Attrs: nounwind uwtable
define internal void @vp8_luma_dc_wht_dc_c(ptr noundef %0, ptr noundef %1) #1 {
  %3 = alloca ptr, align 8
  %4 = alloca ptr, align 8
  %5 = alloca i32, align 4
  %6 = alloca i32, align 4
  store ptr %0, ptr %3, align 8, !tbaa !134
  store ptr %1, ptr %4, align 8, !tbaa !134
  call void @llvm.lifetime.start.p0(i64 4, ptr %5) #6
  call void @llvm.lifetime.start.p0(i64 4, ptr %6) #6
  %7 = load ptr, ptr %4, align 8, !tbaa !134
  %8 = getelementptr inbounds i16, ptr %7, i64 0
  %9 = load i16, ptr %8, align 2, !tbaa !136
  %10 = sext i16 %9 to i32
  %11 = add nsw i32 %10, 3
  %12 = ashr i32 %11, 3
  store i32 %12, ptr %6, align 4, !tbaa !14
  %13 = load ptr, ptr %4, align 8, !tbaa !134
  %14 = getelementptr inbounds i16, ptr %13, i64 0
  store i16 0, ptr %14, align 2, !tbaa !136
  store i32 0, ptr %5, align 4, !tbaa !14
  br label %15

15:                                               ; preds = %51, %2
  %16 = load i32, ptr %5, align 4, !tbaa !14
  %17 = icmp slt i32 %16, 4
  br i1 %17, label %18, label %54

18:                                               ; preds = %15
  %19 = load i32, ptr %6, align 4, !tbaa !14
  %20 = trunc i32 %19 to i16
  %21 = load ptr, ptr %3, align 8, !tbaa !134
  %22 = load i32, ptr %5, align 4, !tbaa !14
  %23 = sext i32 %22 to i64
  %24 = getelementptr inbounds [4 x [16 x i16]], ptr %21, i64 %23
  %25 = getelementptr inbounds [4 x [16 x i16]], ptr %24, i64 0, i64 0
  %26 = getelementptr inbounds [16 x i16], ptr %25, i64 0, i64 0
  store i16 %20, ptr %26, align 2, !tbaa !136
  %27 = load i32, ptr %6, align 4, !tbaa !14
  %28 = trunc i32 %27 to i16
  %29 = load ptr, ptr %3, align 8, !tbaa !134
  %30 = load i32, ptr %5, align 4, !tbaa !14
  %31 = sext i32 %30 to i64
  %32 = getelementptr inbounds [4 x [16 x i16]], ptr %29, i64 %31
  %33 = getelementptr inbounds [4 x [16 x i16]], ptr %32, i64 0, i64 1
  %34 = getelementptr inbounds [16 x i16], ptr %33, i64 0, i64 0
  store i16 %28, ptr %34, align 2, !tbaa !136
  %35 = load i32, ptr %6, align 4, !tbaa !14
  %36 = trunc i32 %35 to i16
  %37 = load ptr, ptr %3, align 8, !tbaa !134
  %38 = load i32, ptr %5, align 4, !tbaa !14
  %39 = sext i32 %38 to i64
  %40 = getelementptr inbounds [4 x [16 x i16]], ptr %37, i64 %39
  %41 = getelementptr inbounds [4 x [16 x i16]], ptr %40, i64 0, i64 2
  %42 = getelementptr inbounds [16 x i16], ptr %41, i64 0, i64 0
  store i16 %36, ptr %42, align 2, !tbaa !136
  %43 = load i32, ptr %6, align 4, !tbaa !14
  %44 = trunc i32 %43 to i16
  %45 = load ptr, ptr %3, align 8, !tbaa !134
  %46 = load i32, ptr %5, align 4, !tbaa !14
  %47 = sext i32 %46 to i64
  %48 = getelementptr inbounds [4 x [16 x i16]], ptr %45, i64 %47
  %49 = getelementptr inbounds [4 x [16 x i16]], ptr %48, i64 0, i64 3
  %50 = getelementptr inbounds [16 x i16], ptr %49, i64 0, i64 0
  store i16 %44, ptr %50, align 2, !tbaa !136
  br label %51

51:                                               ; preds = %18
  %52 = load i32, ptr %5, align 4, !tbaa !14
  %53 = add nsw i32 %52, 1
  store i32 %53, ptr %5, align 4, !tbaa !14
  br label %15, !llvm.loop !152

54:                                               ; preds = %15
  call void @llvm.lifetime.end.p0(i64 4, ptr %6) #6
  call void @llvm.lifetime.end.p0(i64 4, ptr %5) #6
  ret void
}