; Function Attrs: nofree norecurse nosync nounwind memory(argmem: readwrite) uwtable
define internal void @vp8_luma_dc_wht_dc_c(ptr noundef writeonly captures(none) %0, ptr noundef captures(none) %1) #1 {
  %3 = load i16, ptr %1, align 2, !tbaa !126
  %4 = sext i16 %3 to i32
  %5 = add nsw i32 %4, 3
  %6 = lshr i32 %5, 3
  store i16 0, ptr %1, align 2, !tbaa !126
  %7 = trunc i32 %6 to i16
  br label %8

8:                                                ; preds = %2, %8
  %indvars.iv = phi i64 [ 0, %2 ], [ %indvars.iv.next, %8 ]
  %9 = getelementptr inbounds nuw [4 x [16 x i16]], ptr %0, i64 %indvars.iv
  store i16 %7, ptr %9, align 2, !tbaa !126
  %10 = getelementptr inbounds nuw i8, ptr %9, i64 32
  store i16 %7, ptr %10, align 2, !tbaa !126
  %11 = getelementptr inbounds nuw i8, ptr %9, i64 64
  store i16 %7, ptr %11, align 2, !tbaa !126
  %12 = getelementptr inbounds nuw i8, ptr %9, i64 96
  store i16 %7, ptr %12, align 2, !tbaa !126
  %indvars.iv.next = add nuw nsw i64 %indvars.iv, 1
  %exitcond.not = icmp eq i64 %indvars.iv.next, 4
  br i1 %exitcond.not, label %13, label %8, !llvm.loop !146

13:                                               ; preds = %8
  ret void
}